
 Start  Stop   Length Name                   Class
 00000H 0033FH 00340H _TEXT16                CODE
 00340H 094C5H 09186H _TEXT                  CODE
 094C8H 094C8H 00000H _ETEXT                 CODE
 094D0H 0961FH 00150H _DATA16                DATA
 09700H 0EF5FH 05860H _DATA                  DATA
 0EF60H 0EF60H 00000H CONST                  CONST
 0EF60H 0EF60H 00000H _STATIC                STATIC
 0EF60H 0EF60H 00000H _BSS                   BSS
 0EF60H 0EF60H 00000H c_common               BSS
 0EF60H 0EF60H 00000H _EDATA                 ENDDATA
 0EF60H 0EF60H 00000H _TLS                   TLS

 Origin   Group
 0970:0   DATA
 0000:0   GRP16

  Address         Publics by Name

 0000:94D0       adesGDT
 0000:9500       adesGDTend
 0970:0004       aoffIDTInit
 0000:06DE       Bounds
 0000:06D2       BreakPoint
 0000:9506       bSwitches
 0000:08FF       CheckShift
 0000:0704       CPFault
 0000:06F0       DblFault
 0000:069A       Debug
 0000:09D6       Debugger
 0000:94F0       desCode
 0000:94E8       desData
 0000:94D8       desFlat
 0000:94D0       desNull
 0000:94E0       desText
 0000:94F8       desTSS
 0000:0694       DivError
 0000:9500       dtrGDTTmp
 0000:0BC9       EmulateInALDX
 0000:0B08       EmulateInALnn
 0000:0BF4       EmulateInAXDX
 0000:0B39       EmulateInAXnn
 0000:0A64       EmulateINT
 0000:0A96       EmulateINT3
 0000:0C21       EmulateOutDXAL
 0000:0C49       EmulateOutDXAX
 0000:0B6C       EmulateOutnnAL
 0000:0B9A       EmulateOutnnAX
 0000:0030  Abs  GDT_SIZE
 0000:070E       GeneralFault
 0000:150D       GetVRAMAddress
 0000:072F       GPFault
 0000:0769       GPFaultReturn
 0000:077C       HWInterrupt
 0000:0100       Init16
 0000:0340       Init32
 0000:0227       InitContinue
 0000:06E4       InvOpCode
 0000:07C5       IRQ2Interrupt
 0000:07CB       IRQ3Interrupt
 0000:07D1       IRQ4Interrupt
 0000:07D7       IRQ5Interrupt
 0000:07DD       IRQ6Interrupt
 0000:07E3       IRQ7Interrupt
 0000:07E4       IRQ8Interrupt
 0000:07EA       IRQ9Interrupt
 0000:07F0       IRQAInterrupt
 0000:07F6       IRQBInterrupt
 0000:07FC       IRQCInterrupt
 0000:0805       IRQDInterrupt
 0000:080E       IRQEInterrupt
 0000:0817       IRQFInterrupt
 0000:084F       KBDInterrupt
 0000:052A       Main32
 0000:06A0       NMI
 0000:06EA       NoCP
 0000:06D8       Overflow
 0000:0700       PageFault
 0000:1458       RestorePlaneMode
 0000:13C0       RestorePlanes
 0970:0759       SavedIMRs
 0000:1328       SavePlanes
 0000:06F8       SegFault
 0000:0020  Abs  SEL_CODE
 0000:0018  Abs  SEL_DATA
 0000:0008  Abs  SEL_FLAT
 0000:0010  Abs  SEL_TEXT
 0000:0028  Abs  SEL_TSS
 0000:12AF       SetPlaneMode
 0000:0AB0       SimulateINT
 0000:06FC       StackFault
 0000:0818       TMRInterrupt
 0000:06F4       TSSFault
 0000:0708       UnknownFault
 0000:0320       v86Init
 0000:0322       WaitKbdInput16
 0000:032B       WaitKbdOutput16
 0970:3660       _aaidGroup
 0970:013D       _abKeyBuff
 0970:1238       _abpdGlobal
 0970:3C60       _abTypeSize
 0970:0249       _abXlatCtrl
 0970:01C9       _abXlatNorm
 0970:02C9       _abXlatShift
 0970:5208       _achHist
 0970:1E0C       _achScale
 0000:8730       _addhistory
 0970:4B28       _aexop
 0970:0359       _afnEmulate
 0970:2A60       _aid0F
 0970:1E60       _aidBase
 0970:0349       _aintSimulate
 0970:1400       _aoffSel
 0970:4F18       _apfnDOSDump
 0970:4F14       _apszDOSDump
 0970:3D28       _apszIDTDesc
 0970:13F0       _apszIDTOptions
 0970:18C8       _apszMnemonic
 0970:13D8       _apszOptions
 0970:1E40       _apszRM
 0970:1CB0       _ardRegs
 0970:4B18       _avParse
 0970:1184       _bDefColor
 0970:00D2       _cbBSSData
 0970:1234       _cbpdGlobal
 0970:00CE       _cbPhysData
 0970:1170       _colCursor
 0970:1178       _colCursorMax
 0000:155C       _COMInit
 0000:15CC       _COMInput
 0000:15EB       _COMOutput
 0970:1188       _COMPort
 0970:13F8       _desV86
 0000:095C       _DisableKbd
 0000:09A0       _DisableMse
 0000:795D       _DOSDumpArena
 0000:78D0       _DOSDumpCommand
 0000:093B       _DrainKbd
 0000:096D       _DrainMse
 0970:00E0       _dtrGDT
 0970:00D6       _dtrIDT
 0000:8C86       _dwtosz
 0000:0000  Abs  _EDATA
 0000:0950       _EnableKbd
 0000:0986       _EnableMse
 0000:0000  Abs  _end
 0970:0139       _flKeyEvent
 0970:01C5       _flKeyShift
 0970:1214       _flTrace
 0000:78AE       _fnCompress
 0000:6EBD       _fnopAdd
 0000:75B6       _fnopAnd
 0000:711B       _fnopClose
 0000:6D8F       _fnopDeref
 0000:705C       _fnopDiv
 0000:7495       _fnopEq
 0000:7403       _fnopGE
 0000:7371       _fnopGT
 0000:72DF       _fnopLE
 0000:7754       _fnopLogAnd
 0000:6E56       _fnopLogNot
 0000:7801       _fnopLogOr
 0000:724D       _fnopLT
 0000:6FD1       _fnopMul
 0000:7526       _fnopNeq
 0000:6DF2       _fnopNot
 0000:7106       _fnopOpen
 0000:76CA       _fnopOr
 0000:7135       _fnopShl
 0000:71C1       _fnopShr
 0000:6F47       _fnopSub
 0000:7640       _fnopXor
 0000:87C2       _getcurrhistory
 0000:8834       _getnexthistory
 0000:88AA       _getprevhistory
 0970:1210       _iDebugEntry
 0970:5204       _iHistCurr
 0970:5200       _iHistFree
 0970:120C       _iIDTEntry
 0000:0CE0       _InitMemMgr
 0000:0DC0       _InitVideoMgr
 0000:0E77       _InitVS
 0970:1220       _iSizeLast
 0000:942A       _istrtoken
 0970:121C       _lInsCount
 0000:0C80       _Main
 0000:0D83       _MemAlloc
 0000:0DB3       _MemFree
 0970:1218       _msDebugStart
 0000:936E       _mymemcmp
 0000:908F       _mystrcmpi
 0000:852F       _ngets
 0000:932C       _nmemcpy
 0000:9353       _nmemset
 0000:93D1       _nsanitize
 0000:926B       _nstrcat
 0000:9297       _nstrcatn
 0000:91A1       _nstrcpy
 0000:91F4       _nstrcpyn
 0000:8EF0       _nstrlen
 0000:8F2C       _nstrskip
 0000:8FB6       _nstrskipbackto
 0000:8F71       _nstrskipto
 0000:92C6       _nstrupr
 0970:1228       _offCodeLast
 0970:1230       _offDataLast
 0000:6A63       _ParseAddr
 0000:62B7       _ParseCommand
 0000:6CB1       _ParseEvalOps
 0000:6270       _ParseInit
 0000:6BEA       _ParsePop
 0000:6BB3       _ParsePush
 0000:6C1E       _ParsePushOp
 0000:69D0       _ParseRange
 0000:6888       _ParseReg
 0000:632D       _ParseValue
 0970:01BD       _pbKeyHead
 0970:01C1       _pbKeyTail
 0970:13C8       _pbpdTempDisable
 0970:010A       _pFree
 0970:00E6       _pGDT
 0970:00DC       _pIDT
 0970:0106       _pLinFree
 0970:090C       _pmbZero
 0970:00F6       _pPgDir
 0970:00FE       _pPgTbl
 0970:00CA       _pPhysData
 0970:0102       _pPhysFree
 0970:00F2       _pPhysPgDir
 0970:00FA       _pPhysPgTbl
 0970:00EA       _pPhysTSS
 0000:7D70       _printf
 0970:00EE       _pTSS
 0970:0A0C       _pVRAM
 0000:0591       _Reboot
 0000:8925       _removehistory
 0000:1139       _RestoreVS
 0970:116C       _rowCursor
 0970:1174       _rowCursorMax
 0970:1180       _rowScreenMax
 0970:117C       _rowScreenVis
 0000:0F68       _SaveVS
 0970:1224       _selCodeLast
 0970:122C       _selDataLast
 0970:00C8       _sel_Data
 0970:00C4       _sel_Flat
 0970:00C6       _sel_Text
 0000:0D12       _SetPages
 0000:8990       _sprintf
 0970:4BB0       _stkOps
 0970:4C08       _stkVals
 0000:8FFB       _strcmp
 0970:0110       _szAssert
 0970:4C60       _szError
 0970:0808       _szTitle
 0000:8E21       _sztodw
 0970:0000       _v86Init
 0970:0DC0       _vsMonitor
 0000:89B2       _vsprintf
 0970:0A10       _vsVM
 0000:09BA       _WaitKbdInput
 0000:09C8       _WaitKbdOutput
 0000:18EE       _x86AddrType
 0000:3D8C       _x86AllocBP
 0000:4198       _x86ApplyBPs
 0000:46A3       _x86BPCommand
 0000:5407       _x86Command
 0000:351F       _x86CopyOperand
 0000:5F6C       _x86Debug
 0000:25E3       _x86Decode
 0000:2BB9       _x86DecodeOperand
 0000:1A21       _x86DescBase
 0000:214D       _x86DescDump
 0000:1A7A       _x86DescSize
 0000:3E7A       _x86DisableBP
 0000:4418       _x86DispTrapRange
 0000:497A       _x86DumpCommand
 0000:4C3B       _x86EditCommand
 0000:3EE6       _x86EnableBP
 0000:40E8       _x86FindBP
 0000:3F52       _x86FreeBP
 0000:1B90       _x86GetByte
 0000:1C63       _x86GetBytes
 0000:1C26       _x86GetDWord
 0000:1BEA       _x86GetWord
 0000:1FC6       _x86InsDump
 0000:19C8       _x86IsGate
 0000:3FC4       _x86ListBPs
 0000:171D       _x86LoadFrame
 0000:2281       _x86MemDump
 0000:4DA3       _x86PortCommand
 0000:434C       _x86PortTrap
 0000:43D9       _x86PortTrapped
 0000:4396       _x86PortUntrap
 0000:1E4A       _x86RegDump
 0000:1AF1       _x86RegValue
 0000:4284       _x86RemoveBPs
 0000:1840       _x86SaveFrame
 0000:194E       _x86SelDesc
 0000:41DD       _x86SetBP
 0000:1CBB       _x86SetByte
 0000:1D24       _x86SetWord
 0000:2524       _x86StackDump
 0000:4454       _x86StepSize
 0000:4509       _x86Trace
 0000:1610       _x86Trap
 0000:1D62       _x86TrapDump
 0000:503B       _x86VGACommand
 0000:0001  Abs  __acrtused
 0000:9620       __DataStart
 0000:83DE       __decvistop
 0000:0000  Abs  __edata
 0000:0000  Abs  __end
 0000:8430       __getch
 0000:8405       __incvistop
 0000:84FF       __kbhit
 0000:82E9       __plogicalvram
 0000:7FFB       __putch
 0970:5860       __ResDataEnd
 0970:00C4       __ResDataStart
 0000:83C5       __resetvistop
 0000:94C8       __ResTextEnd
 0000:052A       __ResTextStart
 0000:8018       __scroll
 0000:8206       __setcursor
 0000:8340       __setvistop
 0970:5860       __StaticDataEnd
 0000:0340       __TextStart

  Address         Publics by Value

 0000:0000  Abs  __end
 0000:0000  Abs  __edata
 0000:0000  Abs  _EDATA
 0000:0000  Abs  _end
 0000:0001  Abs  __acrtused
 0000:0008  Abs  SEL_FLAT
 0000:0010  Abs  SEL_TEXT
 0000:0018  Abs  SEL_DATA
 0000:0020  Abs  SEL_CODE
 0000:0028  Abs  SEL_TSS
 0000:0030  Abs  GDT_SIZE
 0000:0100       Init16
 0000:0227       InitContinue
 0000:0320       v86Init
 0000:0322       WaitKbdInput16
 0000:032B       WaitKbdOutput16
 0000:0340       Init32
 0000:0340       __TextStart
 0000:052A       __ResTextStart
 0000:052A       Main32
 0000:0591       _Reboot
 0000:0694       DivError
 0000:069A       Debug
 0000:06A0       NMI
 0000:06D2       BreakPoint
 0000:06D8       Overflow
 0000:06DE       Bounds
 0000:06E4       InvOpCode
 0000:06EA       NoCP
 0000:06F0       DblFault
 0000:06F4       TSSFault
 0000:06F8       SegFault
 0000:06FC       StackFault
 0000:0700       PageFault
 0000:0704       CPFault
 0000:0708       UnknownFault
 0000:070E       GeneralFault
 0000:072F       GPFault
 0000:0769       GPFaultReturn
 0000:077C       HWInterrupt
 0000:07C5       IRQ2Interrupt
 0000:07CB       IRQ3Interrupt
 0000:07D1       IRQ4Interrupt
 0000:07D7       IRQ5Interrupt
 0000:07DD       IRQ6Interrupt
 0000:07E3       IRQ7Interrupt
 0000:07E4       IRQ8Interrupt
 0000:07EA       IRQ9Interrupt
 0000:07F0       IRQAInterrupt
 0000:07F6       IRQBInterrupt
 0000:07FC       IRQCInterrupt
 0000:0805       IRQDInterrupt
 0000:080E       IRQEInterrupt
 0000:0817       IRQFInterrupt
 0000:0818       TMRInterrupt
 0000:084F       KBDInterrupt
 0000:08FF       CheckShift
 0000:093B       _DrainKbd
 0000:0950       _EnableKbd
 0000:095C       _DisableKbd
 0000:096D       _DrainMse
 0000:0986       _EnableMse
 0000:09A0       _DisableMse
 0000:09BA       _WaitKbdInput
 0000:09C8       _WaitKbdOutput
 0000:09D6       Debugger
 0000:0A64       EmulateINT
 0000:0A96       EmulateINT3
 0000:0AB0       SimulateINT
 0000:0B08       EmulateInALnn
 0000:0B39       EmulateInAXnn
 0000:0B6C       EmulateOutnnAL
 0000:0B9A       EmulateOutnnAX
 0000:0BC9       EmulateInALDX
 0000:0BF4       EmulateInAXDX
 0000:0C21       EmulateOutDXAL
 0000:0C49       EmulateOutDXAX
 0000:0C80       _Main
 0000:0CE0       _InitMemMgr
 0000:0D12       _SetPages
 0000:0D83       _MemAlloc
 0000:0DB3       _MemFree
 0000:0DC0       _InitVideoMgr
 0000:0E77       _InitVS
 0000:0F68       _SaveVS
 0000:1139       _RestoreVS
 0000:12AF       SetPlaneMode
 0000:1328       SavePlanes
 0000:13C0       RestorePlanes
 0000:1458       RestorePlaneMode
 0000:150D       GetVRAMAddress
 0000:155C       _COMInit
 0000:15CC       _COMInput
 0000:15EB       _COMOutput
 0000:1610       _x86Trap
 0000:171D       _x86LoadFrame
 0000:1840       _x86SaveFrame
 0000:18EE       _x86AddrType
 0000:194E       _x86SelDesc
 0000:19C8       _x86IsGate
 0000:1A21       _x86DescBase
 0000:1A7A       _x86DescSize
 0000:1AF1       _x86RegValue
 0000:1B90       _x86GetByte
 0000:1BEA       _x86GetWord
 0000:1C26       _x86GetDWord
 0000:1C63       _x86GetBytes
 0000:1CBB       _x86SetByte
 0000:1D24       _x86SetWord
 0000:1D62       _x86TrapDump
 0000:1E4A       _x86RegDump
 0000:1FC6       _x86InsDump
 0000:214D       _x86DescDump
 0000:2281       _x86MemDump
 0000:2524       _x86StackDump
 0000:25E3       _x86Decode
 0000:2BB9       _x86DecodeOperand
 0000:351F       _x86CopyOperand
 0000:3D8C       _x86AllocBP
 0000:3E7A       _x86DisableBP
 0000:3EE6       _x86EnableBP
 0000:3F52       _x86FreeBP
 0000:3FC4       _x86ListBPs
 0000:40E8       _x86FindBP
 0000:4198       _x86ApplyBPs
 0000:41DD       _x86SetBP
 0000:4284       _x86RemoveBPs
 0000:434C       _x86PortTrap
 0000:4396       _x86PortUntrap
 0000:43D9       _x86PortTrapped
 0000:4418       _x86DispTrapRange
 0000:4454       _x86StepSize
 0000:4509       _x86Trace
 0000:46A3       _x86BPCommand
 0000:497A       _x86DumpCommand
 0000:4C3B       _x86EditCommand
 0000:4DA3       _x86PortCommand
 0000:503B       _x86VGACommand
 0000:5407       _x86Command
 0000:5F6C       _x86Debug
 0000:6270       _ParseInit
 0000:62B7       _ParseCommand
 0000:632D       _ParseValue
 0000:6888       _ParseReg
 0000:69D0       _ParseRange
 0000:6A63       _ParseAddr
 0000:6BB3       _ParsePush
 0000:6BEA       _ParsePop
 0000:6C1E       _ParsePushOp
 0000:6CB1       _ParseEvalOps
 0000:6D8F       _fnopDeref
 0000:6DF2       _fnopNot
 0000:6E56       _fnopLogNot
 0000:6EBD       _fnopAdd
 0000:6F47       _fnopSub
 0000:6FD1       _fnopMul
 0000:705C       _fnopDiv
 0000:7106       _fnopOpen
 0000:711B       _fnopClose
 0000:7135       _fnopShl
 0000:71C1       _fnopShr
 0000:724D       _fnopLT
 0000:72DF       _fnopLE
 0000:7371       _fnopGT
 0000:7403       _fnopGE
 0000:7495       _fnopEq
 0000:7526       _fnopNeq
 0000:75B6       _fnopAnd
 0000:7640       _fnopXor
 0000:76CA       _fnopOr
 0000:7754       _fnopLogAnd
 0000:7801       _fnopLogOr
 0000:78AE       _fnCompress
 0000:78D0       _DOSDumpCommand
 0000:795D       _DOSDumpArena
 0000:7D70       _printf
 0000:7FFB       __putch
 0000:8018       __scroll
 0000:8206       __setcursor
 0000:82E9       __plogicalvram
 0000:8340       __setvistop
 0000:83C5       __resetvistop
 0000:83DE       __decvistop
 0000:8405       __incvistop
 0000:8430       __getch
 0000:84FF       __kbhit
 0000:852F       _ngets
 0000:8730       _addhistory
 0000:87C2       _getcurrhistory
 0000:8834       _getnexthistory
 0000:88AA       _getprevhistory
 0000:8925       _removehistory
 0000:8990       _sprintf
 0000:89B2       _vsprintf
 0000:8C86       _dwtosz
 0000:8E21       _sztodw
 0000:8EF0       _nstrlen
 0000:8F2C       _nstrskip
 0000:8F71       _nstrskipto
 0000:8FB6       _nstrskipbackto
 0000:8FFB       _strcmp
 0000:908F       _mystrcmpi
 0000:91A1       _nstrcpy
 0000:91F4       _nstrcpyn
 0000:926B       _nstrcat
 0000:9297       _nstrcatn
 0000:92C6       _nstrupr
 0000:932C       _nmemcpy
 0000:9353       _nmemset
 0000:936E       _mymemcmp
 0000:93D1       _nsanitize
 0000:942A       _istrtoken
 0000:94C8       __ResTextEnd
 0000:94D0       desNull
 0000:94D0       adesGDT
 0000:94D8       desFlat
 0000:94E0       desText
 0000:94E8       desData
 0000:94F0       desCode
 0000:94F8       desTSS
 0000:9500       dtrGDTTmp
 0000:9500       adesGDTend
 0000:9506       bSwitches
 0000:9620       __DataStart
 0970:0000       _v86Init
 0970:0004       aoffIDTInit
 0970:00C4       __ResDataStart
 0970:00C4       _sel_Flat
 0970:00C6       _sel_Text
 0970:00C8       _sel_Data
 0970:00CA       _pPhysData
 0970:00CE       _cbPhysData
 0970:00D2       _cbBSSData
 0970:00D6       _dtrIDT
 0970:00DC       _pIDT
 0970:00E0       _dtrGDT
 0970:00E6       _pGDT
 0970:00EA       _pPhysTSS
 0970:00EE       _pTSS
 0970:00F2       _pPhysPgDir
 0970:00F6       _pPgDir
 0970:00FA       _pPhysPgTbl
 0970:00FE       _pPgTbl
 0970:0102       _pPhysFree
 0970:0106       _pLinFree
 0970:010A       _pFree
 0970:0110       _szAssert
 0970:0139       _flKeyEvent
 0970:013D       _abKeyBuff
 0970:01BD       _pbKeyHead
 0970:01C1       _pbKeyTail
 0970:01C5       _flKeyShift
 0970:01C9       _abXlatNorm
 0970:0249       _abXlatCtrl
 0970:02C9       _abXlatShift
 0970:0349       _aintSimulate
 0970:0359       _afnEmulate
 0970:0759       SavedIMRs
 0970:0808       _szTitle
 0970:090C       _pmbZero
 0970:0A0C       _pVRAM
 0970:0A10       _vsVM
 0970:0DC0       _vsMonitor
 0970:116C       _rowCursor
 0970:1170       _colCursor
 0970:1174       _rowCursorMax
 0970:1178       _colCursorMax
 0970:117C       _rowScreenVis
 0970:1180       _rowScreenMax
 0970:1184       _bDefColor
 0970:1188       _COMPort
 0970:120C       _iIDTEntry
 0970:1210       _iDebugEntry
 0970:1214       _flTrace
 0970:1218       _msDebugStart
 0970:121C       _lInsCount
 0970:1220       _iSizeLast
 0970:1224       _selCodeLast
 0970:1228       _offCodeLast
 0970:122C       _selDataLast
 0970:1230       _offDataLast
 0970:1234       _cbpdGlobal
 0970:1238       _abpdGlobal
 0970:13C8       _pbpdTempDisable
 0970:13D8       _apszOptions
 0970:13F0       _apszIDTOptions
 0970:13F8       _desV86
 0970:1400       _aoffSel
 0970:18C8       _apszMnemonic
 0970:1CB0       _ardRegs
 0970:1E0C       _achScale
 0970:1E40       _apszRM
 0970:1E60       _aidBase
 0970:2A60       _aid0F
 0970:3660       _aaidGroup
 0970:3C60       _abTypeSize
 0970:3D28       _apszIDTDesc
 0970:4B18       _avParse
 0970:4B28       _aexop
 0970:4BB0       _stkOps
 0970:4C08       _stkVals
 0970:4C60       _szError
 0970:4F14       _apszDOSDump
 0970:4F18       _apfnDOSDump
 0970:5200       _iHistFree
 0970:5204       _iHistCurr
 0970:5208       _achHist
 0970:5860       __StaticDataEnd
 0970:5860       __ResDataEnd

Program entry point at 0000:0100
